(dp1
S'\x87'
I0
sS'\x93'
I1
sS'\x9b'
I2
sS' '
I3
sS'\xa3'
I4
sS'$'
I5
sS'\xa7'
I6
sS'('
I7
sS'\xab'
I8
sS','
I9
sS'\xaf'
I10
sS'0'
I11
sS'\xb3'
I12
sS'4'
I13
sS'8'
I14
sS'@'
I15
sS'\xc3'
I16
sS'\xcb'
I17
sS'\\'
I18
sS'd'
I19
sS'h'
I20
sS'l'
I21
sS'p'
I22
sS't'
I23
sS'x'
I24
sS'\x80'
I25
sS'\x88'
I26
sS'\x8c'
I27
sS'\x94'
I28
sS'\xa0'
I29
sS'#'
I30
sS'\xa4'
I31
sS"'"
I32
sS'\xa8'
I33
sS'+'
I34
sS'\xac'
I35
sS'/'
I36
sS'3'
I37
sS'\xb4'
I38
sS'7'
I39
sS'\xb8'
I40
sS';'
I41
sS'\xbc'
I42
sS'?'
I43
sS'\xc4'
I44
sS'['
I45
sS'_'
I46
sS'\xe0'
I47
sS'c'
I48
sS'\xe4'
I49
sS'g'
I50
sS'\xe8'
I51
sS'k'
I52
sS'o'
I53
sS's'
I54
sS'w'
I55
sS'\x81'
I56
sS'\x85'
I57
sS'\x89'
I58
sS'\n'
I59
sS'\x91'
I60
sS'\xa1'
I61
sS'"'
I62
sS'&'
I63
sS'\xa9'
I64
sS'*'
I65
sS'\xad'
I66
sS'.'
I67
sS'\xb1'
I68
sS'2'
I69
sS'6'
I70
sS'\xb9'
I71
sS':'
I72
sS'\xbd'
I73
sS'\xc5'
I74
sS'^'
I75
sS'b'
I76
sS'f'
I77
sS'\xe9'
I78
sS'j'
I79
sS'n'
I80
sS'r'
I81
sS'v'
I82
sS'z'
I83
sS'\x82'
I84
sS'\x92'
I85
sS'\x9a'
I86
sS'!'
I87
sS'\xa2'
I88
sS'%'
I89
sS'\xa6'
I90
sS')'
I91
sS'\xaa'
I92
sS'-'
I93
sS'1'
I94
sS'\xb2'
I95
sS'5'
I96
sS'\xb6'
I97
sS'9'
I98
sS'='
I99
sS'\xc2'
I100
sS']'
I101
sS'a'
I102
sS'\xe2'
I103
sS'e'
I104
sS'i'
I105
sS'm'
I106
sS'q'
I107
sS'u'
I108
sS'y'
I109
s.